; Function Attrs: nofree nounwind uwtable
define void @Ssc_GiaClassesInit(ptr noundef captures(none) initializes((192, 208)) %0) local_unnamed_addr #4 {
  %2 = getelementptr i8, ptr %0, i64 24
  %.val18 = load i32, ptr %2, align 8, !tbaa !57
  %3 = sext i32 %.val18 to i64
  %4 = tail call noalias ptr @calloc(i64 noundef %3, i64 noundef 4) #10
  %5 = getelementptr inbounds nuw i8, ptr %0, i64 192
  store ptr %4, ptr %5, align 8, !tbaa !12
  %6 = tail call noalias ptr @calloc(i64 noundef %3, i64 noundef 4) #10
  %7 = getelementptr inbounds nuw i8, ptr %0, i64 200
  store ptr %6, ptr %7, align 8, !tbaa !31
  %8 = getelementptr i8, ptr %0, i64 32
  %9 = icmp sgt i32 %.val18, 0
  br i1 %9, label %.lr.ph, label %.critedge

.lr.ph:                                           ; preds = %1, %10
  %indvars.iv = phi i64 [ %indvars.iv.next, %10 ], [ 0, %1 ]
  %.val17 = load ptr, ptr %8, align 8, !tbaa !37
  %.not = icmp eq ptr %.val17, null
  br i1 %.not, label %.critedge, label %10

10:                                               ; preds = %.lr.ph
  %11 = getelementptr inbounds nuw %struct.Gia_Obj_t_, ptr %.val17, i64 %indvars.iv
  %.val20 = load i64, ptr %11, align 4
  %12 = and i64 %.val20, 2147483648
  %.not.i.i = icmp ne i64 %12, 0
  %13 = and i64 %.val20, 536870911
  %14 = icmp eq i64 %13, 536870911
  %narrow.i.not.not.i.not22 = or i1 %.not.i.i, %14
  %15 = and i64 %.val20, 2684354559
  %narrow.i3.i = icmp ne i64 %15, 2684354559
  %narrow.i.not = select i1 %narrow.i.not.not.i.not22, i1 %narrow.i3.i, i1 false
  %16 = select i1 %narrow.i.not, i32 268435455, i32 0
  %.val = load ptr, ptr %5, align 8, !tbaa !12
  %17 = getelementptr inbounds nuw %struct.Gia_Rpr_t_, ptr %.val, i64 %indvars.iv
  %18 = load i32, ptr %17, align 4
  %19 = and i32 %18, -268435456
  %20 = or disjoint i32 %16, %19
  store i32 %20, ptr %17, align 4
  %indvars.iv.next = add nuw nsw i64 %indvars.iv, 1
  %21 = load i32, ptr %2, align 8, !tbaa !57
  %22 = sext i32 %21 to i64
  %23 = icmp slt i64 %indvars.iv.next, %22
  br i1 %23, label %.lr.ph, label %.critedge, !llvm.loop !58

.critedge:                                        ; preds = %.lr.ph, %10, %1
  %24 = getelementptr inbounds nuw i8, ptr %0, i64 864
  %25 = load ptr, ptr %24, align 8, !tbaa !34
  %26 = icmp eq ptr %25, null
  br i1 %26, label %27, label %32

27:                                               ; preds = %.critedge
  %28 = tail call noalias dereferenceable_or_null(16) ptr @malloc(i64 noundef 16) #9
  %29 = getelementptr inbounds nuw i8, ptr %28, i64 4
  store i32 0, ptr %29, align 4, !tbaa !3
  store i32 100, ptr %28, align 8, !tbaa !36
  %30 = tail call noalias dereferenceable_or_null(400) ptr @malloc(i64 noundef 400) #9
  %31 = getelementptr inbounds nuw i8, ptr %28, i64 8
  store ptr %30, ptr %31, align 8, !tbaa !10
  store ptr %28, ptr %24, align 8, !tbaa !34
  br label %32

32:                                               ; preds = %27, %.critedge
  %33 = getelementptr inbounds nuw i8, ptr %0, i64 872
  %34 = load ptr, ptr %33, align 8, !tbaa !35
  %35 = icmp eq ptr %34, null
  br i1 %35, label %36, label %41

36:                                               ; preds = %32
  %37 = tail call noalias dereferenceable_or_null(16) ptr @malloc(i64 noundef 16) #9
  %38 = getelementptr inbounds nuw i8, ptr %37, i64 4
  store i32 0, ptr %38, align 4, !tbaa !3
  store i32 100, ptr %37, align 8, !tbaa !36
  %39 = tail call noalias dereferenceable_or_null(400) ptr @malloc(i64 noundef 400) #9
  %40 = getelementptr inbounds nuw i8, ptr %37, i64 8
  store ptr %39, ptr %40, align 8, !tbaa !10
  store ptr %37, ptr %33, align 8, !tbaa !35
  br label %41

41:                                               ; preds = %36, %32
  ret void
}